target datalayout = "e-m:e-p270:32:32-p271:32:32-p272:64:64-i64:64-i128:128-f80:128-n8:16:32:64-S128"
target triple = "x86_64-pc-linux-gnu"

%struct._lv_obj_t = type { ptr, ptr, ptr, ptr, ptr, %struct.lv_area_t, i32, i16, i16 }
%struct.lv_area_t = type { i32, i32, i32, i32 }
%struct._lv_obj_spec_attr_t = type { ptr, ptr, %struct.lv_event_list_t, %struct.lv_point_t, i32, i32, i16, i16 }
%struct.lv_event_list_t = type { %struct._lv_array_t, i8 }
%struct._lv_array_t = type { ptr, i32, i32, i32, i8 }
%struct.lv_point_t = type { i32, i32 }
%union.lv_style_value_t = type { ptr }

; Function Attrs: inlinehint nounwind uwtable
define internal i32 @lv_obj_get_style_pad_left(ptr noundef %0, i32 noundef %1) #3 {
  %3 = alloca ptr, align 8
  %4 = alloca i32, align 4
  %5 = alloca %union.lv_style_value_t, align 8
  store ptr %0, ptr %3, align 8, !tbaa !3
  store i32 %1, ptr %4, align 4, !tbaa !7
  call void @llvm.lifetime.start.p0(i64 8, ptr %5) #5
  %6 = load ptr, ptr %3, align 8, !tbaa !3
  %7 = load i32, ptr %4, align 4, !tbaa !7
  %8 = call ptr @lv_obj_get_style_prop(ptr noundef %6, i32 noundef %7, i8 noundef zeroext 18)
  %9 = getelementptr inbounds nuw %union.lv_style_value_t, ptr %5, i32 0, i32 0
  store ptr %8, ptr %9, align 8
  %10 = load i32, ptr %5, align 8, !tbaa !24
  call void @llvm.lifetime.end.p0(i64 8, ptr %5) #5
  ret i32 %10
}

; Function Attrs: inlinehint nounwind uwtable
define internal i32 @lv_obj_get_style_border_side(ptr noundef %0, i32 noundef %1) #3 {
  %3 = alloca ptr, align 8
  %4 = alloca i32, align 4
  %5 = alloca %union.lv_style_value_t, align 8
  store ptr %0, ptr %3, align 8, !tbaa !3
  store i32 %1, ptr %4, align 4, !tbaa !7
  call void @llvm.lifetime.start.p0(i64 8, ptr %5) #5
  %6 = load ptr, ptr %3, align 8, !tbaa !3
  %7 = load i32, ptr %4, align 4, !tbaa !7
  %8 = call ptr @lv_obj_get_style_prop(ptr noundef %6, i32 noundef %7, i8 noundef zeroext 52)
  %9 = getelementptr inbounds nuw %union.lv_style_value_t, ptr %5, i32 0, i32 0
  store ptr %8, ptr %9, align 8
  %10 = load i32, ptr %5, align 8, !tbaa !24
  call void @llvm.lifetime.end.p0(i64 8, ptr %5) #5
  ret i32 %10
}

; Function Attrs: inlinehint nounwind uwtable
define internal i32 @lv_obj_get_style_border_width(ptr noundef %0, i32 noundef %1) #3 {
  %3 = alloca ptr, align 8
  %4 = alloca i32, align 4
  %5 = alloca %union.lv_style_value_t, align 8
  store ptr %0, ptr %3, align 8, !tbaa !3
  store i32 %1, ptr %4, align 4, !tbaa !7
  call void @llvm.lifetime.start.p0(i64 8, ptr %5) #5
  %6 = load ptr, ptr %3, align 8, !tbaa !3
  %7 = load i32, ptr %4, align 4, !tbaa !7
  %8 = call ptr @lv_obj_get_style_prop(ptr noundef %6, i32 noundef %7, i8 noundef zeroext 48)
  %9 = getelementptr inbounds nuw %union.lv_style_value_t, ptr %5, i32 0, i32 0
  store ptr %8, ptr %9, align 8
  %10 = load i32, ptr %5, align 8, !tbaa !24
  call void @llvm.lifetime.end.p0(i64 8, ptr %5) #5
  ret i32 %10
}

; Function Attrs: inlinehint nounwind uwtable
define internal i32 @lv_obj_get_style_pad_right(ptr noundef %0, i32 noundef %1) #3 {
  %3 = alloca ptr, align 8
  %4 = alloca i32, align 4
  %5 = alloca %union.lv_style_value_t, align 8
  store ptr %0, ptr %3, align 8, !tbaa !3
  store i32 %1, ptr %4, align 4, !tbaa !7
  call void @llvm.lifetime.start.p0(i64 8, ptr %5) #5
  %6 = load ptr, ptr %3, align 8, !tbaa !3
  %7 = load i32, ptr %4, align 4, !tbaa !7
  %8 = call ptr @lv_obj_get_style_prop(ptr noundef %6, i32 noundef %7, i8 noundef zeroext 19)
  %9 = getelementptr inbounds nuw %union.lv_style_value_t, ptr %5, i32 0, i32 0
  store ptr %8, ptr %9, align 8
  %10 = load i32, ptr %5, align 8, !tbaa !24
  call void @llvm.lifetime.end.p0(i64 8, ptr %5) #5
  ret i32 %10
}

; Function Attrs: nounwind uwtable
define i32 @lv_obj_get_scroll_x(ptr noundef %0) #0 {
  %2 = alloca i32, align 4
  %3 = alloca ptr, align 8
  store ptr %0, ptr %3, align 8, !tbaa !3
  %4 = load ptr, ptr %3, align 8, !tbaa !3
  %5 = getelementptr inbounds nuw %struct._lv_obj_t, ptr %4, i32 0, i32 2
  %6 = load ptr, ptr %5, align 8, !tbaa !9
  %7 = icmp eq ptr %6, null
  br i1 %7, label %8, label %9

8:                                                ; preds = %1
  store i32 0, ptr %2, align 4
  br label %17

9:                                                ; preds = %1
  %10 = load ptr, ptr %3, align 8, !tbaa !3
  %11 = getelementptr inbounds nuw %struct._lv_obj_t, ptr %10, i32 0, i32 2
  %12 = load ptr, ptr %11, align 8, !tbaa !9
  %13 = getelementptr inbounds nuw %struct._lv_obj_spec_attr_t, ptr %12, i32 0, i32 3
  %14 = getelementptr inbounds nuw %struct.lv_point_t, ptr %13, i32 0, i32 0
  %15 = load i32, ptr %14, align 8, !tbaa !13
  %16 = sub nsw i32 0, %15
  store i32 %16, ptr %2, align 4
  br label %17

17:                                               ; preds = %9, %8
  %18 = load i32, ptr %2, align 4
  ret i32 %18
}

; Function Attrs: inlinehint nounwind uwtable
define internal i32 @lv_obj_get_style_margin_left(ptr noundef %0, i32 noundef %1) #3 {
  %3 = alloca ptr, align 8
  %4 = alloca i32, align 4
  %5 = alloca %union.lv_style_value_t, align 8
  store ptr %0, ptr %3, align 8, !tbaa !3
  store i32 %1, ptr %4, align 4, !tbaa !7
  call void @llvm.lifetime.start.p0(i64 8, ptr %5) #5
  %6 = load ptr, ptr %3, align 8, !tbaa !3
  %7 = load i32, ptr %4, align 4, !tbaa !7
  %8 = call ptr @lv_obj_get_style_prop(ptr noundef %6, i32 noundef %7, i8 noundef zeroext 26)
  %9 = getelementptr inbounds nuw %union.lv_style_value_t, ptr %5, i32 0, i32 0
  store ptr %8, ptr %9, align 8
  %10 = load i32, ptr %5, align 8, !tbaa !24
  call void @llvm.lifetime.end.p0(i64 8, ptr %5) #5
  ret i32 %10
}

; Function Attrs: inlinehint nounwind uwtable
define internal i32 @lv_obj_get_style_space_left(ptr noundef %0, i32 noundef %1) #3 {
  %3 = alloca ptr, align 8
  %4 = alloca i32, align 4
  %5 = alloca i32, align 4
  %6 = alloca i32, align 4
  %7 = alloca i32, align 4
  store ptr %0, ptr %3, align 8, !tbaa !3
  store i32 %1, ptr %4, align 4, !tbaa !7
  call void @llvm.lifetime.start.p0(i64 4, ptr %5) #5
  %8 = load ptr, ptr %3, align 8, !tbaa !3
  %9 = load i32, ptr %4, align 4, !tbaa !7
  %10 = call i32 @lv_obj_get_style_pad_left(ptr noundef %8, i32 noundef %9)
  store i32 %10, ptr %5, align 4, !tbaa !7
  call void @llvm.lifetime.start.p0(i64 4, ptr %6) #5
  %11 = load ptr, ptr %3, align 8, !tbaa !3
  %12 = load i32, ptr %4, align 4, !tbaa !7
  %13 = call i32 @lv_obj_get_style_border_width(ptr noundef %11, i32 noundef %12)
  store i32 %13, ptr %6, align 4, !tbaa !7
  call void @llvm.lifetime.start.p0(i64 4, ptr %7) #5
  %14 = load ptr, ptr %3, align 8, !tbaa !3
  %15 = load i32, ptr %4, align 4, !tbaa !7
  %16 = call i32 @lv_obj_get_style_border_side(ptr noundef %14, i32 noundef %15)
  store i32 %16, ptr %7, align 4, !tbaa !7
  %17 = load i32, ptr %7, align 4, !tbaa !7
  %18 = and i32 %17, 4
  %19 = icmp ne i32 %18, 0
  br i1 %19, label %20, label %24

20:                                               ; preds = %2
  %21 = load i32, ptr %5, align 4, !tbaa !7
  %22 = load i32, ptr %6, align 4, !tbaa !7
  %23 = add nsw i32 %21, %22
  br label %26

24:                                               ; preds = %2
  %25 = load i32, ptr %5, align 4, !tbaa !7
  br label %26

26:                                               ; preds = %24, %20
  %27 = phi i32 [ %23, %20 ], [ %25, %24 ]
  call void @llvm.lifetime.end.p0(i64 4, ptr %7) #5
  call void @llvm.lifetime.end.p0(i64 4, ptr %6) #5
  call void @llvm.lifetime.end.p0(i64 4, ptr %5) #5
  ret i32 %27
}

; Function Attrs: inlinehint nounwind uwtable
define internal i32 @lv_obj_get_style_space_right(ptr noundef %0, i32 noundef %1) #3 {
  %3 = alloca ptr, align 8
  %4 = alloca i32, align 4
  %5 = alloca i32, align 4
  %6 = alloca i32, align 4
  %7 = alloca i32, align 4
  store ptr %0, ptr %3, align 8, !tbaa !3
  store i32 %1, ptr %4, align 4, !tbaa !7
  call void @llvm.lifetime.start.p0(i64 4, ptr %5) #5
  %8 = load ptr, ptr %3, align 8, !tbaa !3
  %9 = load i32, ptr %4, align 4, !tbaa !7
  %10 = call i32 @lv_obj_get_style_pad_right(ptr noundef %8, i32 noundef %9)
  store i32 %10, ptr %5, align 4, !tbaa !7
  call void @llvm.lifetime.start.p0(i64 4, ptr %6) #5
  %11 = load ptr, ptr %3, align 8, !tbaa !3
  %12 = load i32, ptr %4, align 4, !tbaa !7
  %13 = call i32 @lv_obj_get_style_border_width(ptr noundef %11, i32 noundef %12)
  store i32 %13, ptr %6, align 4, !tbaa !7
  call void @llvm.lifetime.start.p0(i64 4, ptr %7) #5
  %14 = load ptr, ptr %3, align 8, !tbaa !3
  %15 = load i32, ptr %4, align 4, !tbaa !7
  %16 = call i32 @lv_obj_get_style_border_side(ptr noundef %14, i32 noundef %15)
  store i32 %16, ptr %7, align 4, !tbaa !7
  %17 = load i32, ptr %7, align 4, !tbaa !7
  %18 = and i32 %17, 8
  %19 = icmp ne i32 %18, 0
  br i1 %19, label %20, label %24

20:                                               ; preds = %2
  %21 = load i32, ptr %5, align 4, !tbaa !7
  %22 = load i32, ptr %6, align 4, !tbaa !7
  %23 = add nsw i32 %21, %22
  br label %26

24:                                               ; preds = %2
  %25 = load i32, ptr %5, align 4, !tbaa !7
  br label %26

26:                                               ; preds = %24, %20
  %27 = phi i32 [ %23, %20 ], [ %25, %24 ]
  call void @llvm.lifetime.end.p0(i64 4, ptr %7) #5
  call void @llvm.lifetime.end.p0(i64 4, ptr %6) #5
  call void @llvm.lifetime.end.p0(i64 4, ptr %5) #5
  ret i32 %27
}

; Function Attrs: inlinehint nounwind uwtable
define internal i32 @lv_obj_get_style_base_dir(ptr noundef %0, i32 noundef %1) #3 {
  %3 = alloca ptr, align 8
  %4 = alloca i32, align 4
  %5 = alloca %union.lv_style_value_t, align 8
  store ptr %0, ptr %3, align 8, !tbaa !3
  store i32 %1, ptr %4, align 4, !tbaa !7
  call void @llvm.lifetime.start.p0(i64 8, ptr %5) #5
  %6 = load ptr, ptr %3, align 8, !tbaa !3
  %7 = load i32, ptr %4, align 4, !tbaa !7
  %8 = call ptr @lv_obj_get_style_prop(ptr noundef %6, i32 noundef %7, i8 noundef zeroext 39)
  %9 = getelementptr inbounds nuw %union.lv_style_value_t, ptr %5, i32 0, i32 0
  store ptr %8, ptr %9, align 8
  %10 = load i32, ptr %5, align 8, !tbaa !24
  call void @llvm.lifetime.end.p0(i64 8, ptr %5) #5
  ret i32 %10
}

; Function Attrs: nounwind uwtable
define i32 @lv_obj_get_scroll_left(ptr noundef %0) #0 {
  %2 = alloca i32, align 4
  %3 = alloca ptr, align 8
  %4 = alloca i32, align 4
  %5 = alloca i32, align 4
  %6 = alloca i32, align 4
  %7 = alloca i32, align 4
  %8 = alloca i32, align 4
  %9 = alloca i32, align 4
  %10 = alloca ptr, align 8
  %11 = alloca i32, align 4
  %12 = alloca i32, align 4
  %13 = alloca i32, align 4
  store ptr %0, ptr %3, align 8, !tbaa !3
  br label %14

14:                                               ; preds = %1
  br label %15

15:                                               ; preds = %14
  %16 = load ptr, ptr %3, align 8, !tbaa !3
  %17 = call i32 @lv_obj_get_style_base_dir(ptr noundef %16, i32 noundef 0)
  %18 = icmp ne i32 %17, 1
  br i1 %18, label %19, label %33

19:                                               ; preds = %15
  %20 = load ptr, ptr %3, align 8, !tbaa !3
  %21 = getelementptr inbounds nuw %struct._lv_obj_t, ptr %20, i32 0, i32 2
  %22 = load ptr, ptr %21, align 8, !tbaa !9
  %23 = icmp eq ptr %22, null
  br i1 %23, label %24, label %25

24:                                               ; preds = %19
  store i32 0, ptr %2, align 4
  br label %118

25:                                               ; preds = %19
  %26 = load ptr, ptr %3, align 8, !tbaa !3
  %27 = getelementptr inbounds nuw %struct._lv_obj_t, ptr %26, i32 0, i32 2
  %28 = load ptr, ptr %27, align 8, !tbaa !9
  %29 = getelementptr inbounds nuw %struct._lv_obj_spec_attr_t, ptr %28, i32 0, i32 3
  %30 = getelementptr inbounds nuw %struct.lv_point_t, ptr %29, i32 0, i32 0
  %31 = load i32, ptr %30, align 8, !tbaa !13
  %32 = sub nsw i32 0, %31
  store i32 %32, ptr %2, align 4
  br label %118

33:                                               ; preds = %15
  call void @llvm.lifetime.start.p0(i64 4, ptr %4) #5
  %34 = load ptr, ptr %3, align 8, !tbaa !3
  %35 = call i32 @lv_obj_get_style_space_right(ptr noundef %34, i32 noundef 0)
  store i32 %35, ptr %4, align 4, !tbaa !7
  call void @llvm.lifetime.start.p0(i64 4, ptr %5) #5
  %36 = load ptr, ptr %3, align 8, !tbaa !3
  %37 = call i32 @lv_obj_get_style_space_left(ptr noundef %36, i32 noundef 0)
  store i32 %37, ptr %5, align 4, !tbaa !7
  call void @llvm.lifetime.start.p0(i64 4, ptr %6) #5
  store i32 0, ptr %6, align 4, !tbaa !7
  call void @llvm.lifetime.start.p0(i64 4, ptr %7) #5
  call void @llvm.lifetime.start.p0(i64 4, ptr %8) #5
  store i32 536870911, ptr %8, align 4, !tbaa !7
  call void @llvm.lifetime.start.p0(i64 4, ptr %9) #5
  %38 = load ptr, ptr %3, align 8, !tbaa !3
  %39 = call i32 @lv_obj_get_child_count(ptr noundef %38)
  store i32 %39, ptr %9, align 4, !tbaa !7
  store i32 0, ptr %7, align 4, !tbaa !7
  br label %40

40:                                               ; preds = %77, %33
  %41 = load i32, ptr %7, align 4, !tbaa !7
  %42 = load i32, ptr %9, align 4, !tbaa !7
  %43 = icmp ult i32 %41, %42
  br i1 %43, label %44, label %80

44:                                               ; preds = %40
  call void @llvm.lifetime.start.p0(i64 8, ptr %10) #5
  %45 = load ptr, ptr %3, align 8, !tbaa !3
  %46 = getelementptr inbounds nuw %struct._lv_obj_t, ptr %45, i32 0, i32 2
  %47 = load ptr, ptr %46, align 8, !tbaa !9
  %48 = getelementptr inbounds nuw %struct._lv_obj_spec_attr_t, ptr %47, i32 0, i32 0
  %49 = load ptr, ptr %48, align 8, !tbaa !20
  %50 = load i32, ptr %7, align 4, !tbaa !7
  %51 = zext i32 %50 to i64
  %52 = getelementptr inbounds nuw ptr, ptr %49, i64 %51
  %53 = load ptr, ptr %52, align 8, !tbaa !3
  store ptr %53, ptr %10, align 8, !tbaa !3
  %54 = load ptr, ptr %10, align 8, !tbaa !3
  %55 = call zeroext i1 @lv_obj_has_flag_any(ptr noundef %54, i32 noundef 262145)
  br i1 %55, label %56, label %57

56:                                               ; preds = %44
  store i32 6, ptr %11, align 4
  br label %74

57:                                               ; preds = %44
  call void @llvm.lifetime.start.p0(i64 4, ptr %12) #5
  %58 = load ptr, ptr %10, align 8, !tbaa !3
  %59 = getelementptr inbounds nuw %struct._lv_obj_t, ptr %58, i32 0, i32 5
  %60 = getelementptr inbounds nuw %struct.lv_area_t, ptr %59, i32 0, i32 0
  %61 = load i32, ptr %60, align 8, !tbaa !25
  %62 = load ptr, ptr %10, align 8, !tbaa !3
  %63 = call i32 @lv_obj_get_style_margin_left(ptr noundef %62, i32 noundef 0)
  %64 = sub nsw i32 %61, %63
  store i32 %64, ptr %12, align 4, !tbaa !7
  %65 = load i32, ptr %8, align 4, !tbaa !7
  %66 = load i32, ptr %12, align 4, !tbaa !7
  %67 = icmp slt i32 %65, %66
  br i1 %67, label %68, label %70

68:                                               ; preds = %57
  %69 = load i32, ptr %8, align 4, !tbaa !7
  br label %72

70:                                               ; preds = %57
  %71 = load i32, ptr %12, align 4, !tbaa !7
  br label %72

72:                                               ; preds = %70, %68
  %73 = phi i32 [ %69, %68 ], [ %71, %70 ]
  store i32 %73, ptr %8, align 4, !tbaa !7
  call void @llvm.lifetime.end.p0(i64 4, ptr %12) #5
  store i32 0, ptr %11, align 4
  br label %74

74:                                               ; preds = %72, %56
  call void @llvm.lifetime.end.p0(i64 8, ptr %10) #5
  %75 = load i32, ptr %11, align 4
  switch i32 %75, label %120 [
    i32 0, label %76
    i32 6, label %77
  ]

76:                                               ; preds = %74
  br label %77

77:                                               ; preds = %76, %74
  %78 = load i32, ptr %7, align 4, !tbaa !7
  %79 = add i32 %78, 1
  store i32 %79, ptr %7, align 4, !tbaa !7
  br label %40, !llvm.loop !26

80:                                               ; preds = %40
  %81 = load i32, ptr %8, align 4, !tbaa !7
  %82 = icmp ne i32 %81, 536870911
  br i1 %82, label %83, label %93

83:                                               ; preds = %80
  %84 = load i32, ptr %8, align 4, !tbaa !7
  store i32 %84, ptr %6, align 4, !tbaa !7
  %85 = load ptr, ptr %3, align 8, !tbaa !3
  %86 = getelementptr inbounds nuw %struct._lv_obj_t, ptr %85, i32 0, i32 5
  %87 = getelementptr inbounds nuw %struct.lv_area_t, ptr %86, i32 0, i32 0
  %88 = load i32, ptr %87, align 8, !tbaa !25
  %89 = load i32, ptr %5, align 4, !tbaa !7
  %90 = add nsw i32 %88, %89
  %91 = load i32, ptr %6, align 4, !tbaa !7
  %92 = sub nsw i32 %90, %91
  store i32 %92, ptr %6, align 4, !tbaa !7
  br label %94

93:                                               ; preds = %80
  store i32 -536870911, ptr %6, align 4, !tbaa !7
  br label %94

94:                                               ; preds = %93, %83
  call void @llvm.lifetime.start.p0(i64 4, ptr %13) #5
  %95 = load ptr, ptr %3, align 8, !tbaa !3
  %96 = call i32 @lv_obj_get_self_width(ptr noundef %95)
  store i32 %96, ptr %13, align 4, !tbaa !7
  %97 = load i32, ptr %13, align 4, !tbaa !7
  %98 = load ptr, ptr %3, align 8, !tbaa !3
  %99 = call i32 @lv_obj_get_width(ptr noundef %98)
  %100 = load i32, ptr %4, align 4, !tbaa !7
  %101 = sub nsw i32 %99, %100
  %102 = load i32, ptr %5, align 4, !tbaa !7
  %103 = sub nsw i32 %101, %102
  %104 = sub nsw i32 %97, %103
  store i32 %104, ptr %13, align 4, !tbaa !7
  %105 = load ptr, ptr %3, align 8, !tbaa !3
  %106 = call i32 @lv_obj_get_scroll_x(ptr noundef %105)
  %107 = load i32, ptr %13, align 4, !tbaa !7
  %108 = add nsw i32 %107, %106
  store i32 %108, ptr %13, align 4, !tbaa !7
  %109 = load i32, ptr %6, align 4, !tbaa !7
  %110 = load i32, ptr %13, align 4, !tbaa !7
  %111 = icmp sgt i32 %109, %110
  br i1 %111, label %112, label %114

112:                                              ; preds = %94
  %113 = load i32, ptr %6, align 4, !tbaa !7
  br label %116

114:                                              ; preds = %94
  %115 = load i32, ptr %13, align 4, !tbaa !7
  br label %116

116:                                              ; preds = %114, %112
  %117 = phi i32 [ %113, %112 ], [ %115, %114 ]
  store i32 %117, ptr %2, align 4
  store i32 1, ptr %11, align 4
  call void @llvm.lifetime.end.p0(i64 4, ptr %13) #5
  call void @llvm.lifetime.end.p0(i64 4, ptr %9) #5
  call void @llvm.lifetime.end.p0(i64 4, ptr %8) #5
  call void @llvm.lifetime.end.p0(i64 4, ptr %7) #5
  call void @llvm.lifetime.end.p0(i64 4, ptr %6) #5
  call void @llvm.lifetime.end.p0(i64 4, ptr %5) #5
  call void @llvm.lifetime.end.p0(i64 4, ptr %4) #5
  br label %118

118:                                              ; preds = %116, %25, %24
  %119 = load i32, ptr %2, align 4
  ret i32 %119

120:                                              ; preds = %74
  unreachable
}