; Function Attrs: nounwind uwtable
define i32 @lv_obj_get_scroll_left(ptr noundef %0) local_unnamed_addr #0 {
  %2 = tail call ptr @lv_obj_get_style_prop(ptr noundef %0, i32 noundef 0, i8 noundef zeroext 39) #5
  %3 = ptrtoint ptr %2 to i64
  %4 = and i64 %3, 4294967295
  %.not = icmp eq i64 %4, 1
  br i1 %.not, label %13, label %5

5:                                                ; preds = %1
  %6 = getelementptr inbounds nuw i8, ptr %0, i64 16
  %7 = load ptr, ptr %6, align 8, !tbaa !3
  %8 = icmp eq ptr %7, null
  br i1 %8, label %66, label %9

9:                                                ; preds = %5
  %10 = getelementptr inbounds nuw i8, ptr %7, i64 48
  %11 = load i32, ptr %10, align 8, !tbaa !11
  %12 = sub nsw i32 0, %11
  br label %66

13:                                               ; preds = %1
  %14 = tail call ptr @lv_obj_get_style_prop(ptr noundef %0, i32 noundef 0, i8 noundef zeroext 19) #5
  %15 = ptrtoint ptr %14 to i64
  %.sroa.0.0.extract.trunc.i.i = trunc i64 %15 to i32
  %16 = tail call ptr @lv_obj_get_style_prop(ptr noundef %0, i32 noundef 0, i8 noundef zeroext 48) #5
  %17 = ptrtoint ptr %16 to i64
  %.sroa.0.0.extract.trunc.i9.i = trunc i64 %17 to i32
  %18 = tail call ptr @lv_obj_get_style_prop(ptr noundef %0, i32 noundef 0, i8 noundef zeroext 52) #5
  %19 = ptrtoint ptr %18 to i64
  %20 = and i64 %19, 8
  %.not.i = icmp eq i64 %20, 0
  %21 = select i1 %.not.i, i32 0, i32 %.sroa.0.0.extract.trunc.i9.i
  %22 = add nsw i32 %21, %.sroa.0.0.extract.trunc.i.i
  %23 = tail call ptr @lv_obj_get_style_prop(ptr noundef %0, i32 noundef 0, i8 noundef zeroext 18) #5
  %24 = ptrtoint ptr %23 to i64
  %.sroa.0.0.extract.trunc.i.i39 = trunc i64 %24 to i32
  %25 = tail call ptr @lv_obj_get_style_prop(ptr noundef %0, i32 noundef 0, i8 noundef zeroext 48) #5
  %26 = ptrtoint ptr %25 to i64
  %.sroa.0.0.extract.trunc.i9.i40 = trunc i64 %26 to i32
  %27 = tail call ptr @lv_obj_get_style_prop(ptr noundef %0, i32 noundef 0, i8 noundef zeroext 52) #5
  %28 = ptrtoint ptr %27 to i64
  %29 = and i64 %28, 4
  %.not.i41 = icmp eq i64 %29, 0
  %30 = select i1 %.not.i41, i32 0, i32 %.sroa.0.0.extract.trunc.i9.i40
  %31 = add nsw i32 %30, %.sroa.0.0.extract.trunc.i.i39
  %32 = tail call i32 @lv_obj_get_child_count(ptr noundef %0) #5
  %.not46 = icmp eq i32 %32, 0
  br i1 %.not46, label %._crit_edge.thread, label %.lr.ph

.lr.ph:                                           ; preds = %13
  %33 = getelementptr inbounds nuw i8, ptr %0, i64 16
  %wide.trip.count = zext i32 %32 to i64
  br label %34

34:                                               ; preds = %.lr.ph, %47
  %indvars.iv = phi i64 [ 0, %.lr.ph ], [ %indvars.iv.next, %47 ]
  %.03644 = phi i32 [ 536870911, %.lr.ph ], [ %.1, %47 ]
  %35 = load ptr, ptr %33, align 8, !tbaa !3
  %36 = load ptr, ptr %35, align 8, !tbaa !18
  %37 = getelementptr inbounds nuw ptr, ptr %36, i64 %indvars.iv
  %38 = load ptr, ptr %37, align 8, !tbaa !19
  %39 = tail call zeroext i1 @lv_obj_has_flag_any(ptr noundef %38, i32 noundef 262145) #5
  br i1 %39, label %47, label %40

40:                                               ; preds = %34
  %41 = getelementptr inbounds nuw i8, ptr %38, i64 40
  %42 = load i32, ptr %41, align 8, !tbaa !23
  %43 = tail call ptr @lv_obj_get_style_prop(ptr noundef %38, i32 noundef 0, i8 noundef zeroext 26) #5
  %44 = ptrtoint ptr %43 to i64
  %.sroa.0.0.extract.trunc.i42 = trunc i64 %44 to i32
  %45 = sub nsw i32 %42, %.sroa.0.0.extract.trunc.i42
  %46 = tail call i32 @llvm.smin.i32(i32 %.03644, i32 %45)
  br label %47

47:                                               ; preds = %34, %40
  %.1 = phi i32 [ %46, %40 ], [ %.03644, %34 ]
  %indvars.iv.next = add nuw nsw i64 %indvars.iv, 1
  %exitcond.not = icmp eq i64 %indvars.iv.next, %wide.trip.count
  br i1 %exitcond.not, label %._crit_edge, label %34, !llvm.loop !24

._crit_edge:                                      ; preds = %47
  %.not38 = icmp eq i32 %.1, 536870911
  br i1 %.not38, label %._crit_edge.thread, label %48

48:                                               ; preds = %._crit_edge
  %49 = getelementptr inbounds nuw i8, ptr %0, i64 40
  %50 = load i32, ptr %49, align 8, !tbaa !23
  %51 = sub i32 %31, %.1
  %52 = add i32 %51, %50
  br label %._crit_edge.thread

._crit_edge.thread:                               ; preds = %13, %._crit_edge, %48
  %.034 = phi i32 [ %52, %48 ], [ -536870911, %._crit_edge ], [ -536870911, %13 ]
  %53 = tail call i32 @lv_obj_get_self_width(ptr noundef %0) #5
  %54 = tail call i32 @lv_obj_get_width(ptr noundef %0) #5
  %55 = add i32 %22, %31
  %56 = getelementptr inbounds nuw i8, ptr %0, i64 16
  %57 = load ptr, ptr %56, align 8, !tbaa !3
  %58 = icmp eq ptr %57, null
  br i1 %58, label %lv_obj_get_scroll_x.exit, label %59

59:                                               ; preds = %._crit_edge.thread
  %60 = getelementptr inbounds nuw i8, ptr %57, i64 48
  %61 = load i32, ptr %60, align 8, !tbaa !11
  %62 = sub nsw i32 0, %61
  br label %lv_obj_get_scroll_x.exit

lv_obj_get_scroll_x.exit:                         ; preds = %._crit_edge.thread, %59
  %.0.i = phi i32 [ %62, %59 ], [ 0, %._crit_edge.thread ]
  %.neg = add i32 %55, %53
  %63 = sub i32 %.neg, %54
  %64 = add nsw i32 %63, %.0.i
  %65 = tail call i32 @llvm.smax.i32(i32 %.034, i32 %64)
  br label %66

66:                                               ; preds = %5, %lv_obj_get_scroll_x.exit, %9
  %.0 = phi i32 [ %12, %9 ], [ %65, %lv_obj_get_scroll_x.exit ], [ 0, %5 ]
  ret i32 %.0
}